target datalayout = "e-m:e-p270:32:32-p271:32:32-p272:64:64-i64:64-i128:128-f80:128-n8:16:32:64-S128"
target triple = "x86_64-pc-linux-gnu"

%struct.jpeg_compress_struct = type { ptr, ptr, ptr, ptr, i32, i32, ptr, i32, i32, i32, i32, double, i32, i32, i32, ptr, [4 x ptr], [4 x ptr], [4 x ptr], [16 x i8], [16 x i8], [16 x i8], i32, ptr, i32, i32, i32, i32, i32, i32, i32, i32, i32, i8, i8, i8, i16, i16, i32, i32, i32, i32, i32, i32, i32, [4 x ptr], i32, i32, i32, [10 x i32], i32, i32, i32, i32, ptr, ptr, ptr, ptr, ptr, ptr, ptr, ptr, ptr, ptr, i32 }
%struct.ppm_source_struct = type { %struct.cjpeg_source_struct, ptr, ptr, i64, ptr, i32 }
%struct.cjpeg_source_struct = type { ptr, ptr, ptr, ptr, ptr, ptr, ptr, i32, i32 }

; Function Attrs: alwaysinline nounwind uwtable
define internal void @rgb_to_cmyk(i32 noundef %0, i8 noundef zeroext %1, i8 noundef zeroext %2, i8 noundef zeroext %3, ptr noundef %4, ptr noundef %5, ptr noundef %6, ptr noundef %7) #4 {
  %9 = alloca i32, align 4
  %10 = alloca i8, align 1
  %11 = alloca i8, align 1
  %12 = alloca i8, align 1
  %13 = alloca ptr, align 8
  %14 = alloca ptr, align 8
  %15 = alloca ptr, align 8
  %16 = alloca ptr, align 8
  %17 = alloca double, align 8
  %18 = alloca double, align 8
  %19 = alloca double, align 8
  %20 = alloca double, align 8
  store i32 %0, ptr %9, align 4, !tbaa !49
  store i8 %1, ptr %10, align 1, !tbaa !32
  store i8 %2, ptr %11, align 1, !tbaa !32
  store i8 %3, ptr %12, align 1, !tbaa !32
  store ptr %4, ptr %13, align 8, !tbaa !73
  store ptr %5, ptr %14, align 8, !tbaa !73
  store ptr %6, ptr %15, align 8, !tbaa !73
  store ptr %7, ptr %16, align 8, !tbaa !73
  call void @llvm.lifetime.start.p0(i64 8, ptr %17) #6
  %21 = load i8, ptr %10, align 1, !tbaa !32
  %22 = uitofp i8 %21 to double
  %23 = load i32, ptr %9, align 4, !tbaa !49
  %24 = sitofp i32 %23 to double
  %25 = fdiv double %22, %24
  %26 = fsub double 1.000000e+00, %25
  store double %26, ptr %17, align 8, !tbaa !106
  call void @llvm.lifetime.start.p0(i64 8, ptr %18) #6
  %27 = load i8, ptr %11, align 1, !tbaa !32
  %28 = uitofp i8 %27 to double
  %29 = load i32, ptr %9, align 4, !tbaa !49
  %30 = sitofp i32 %29 to double
  %31 = fdiv double %28, %30
  %32 = fsub double 1.000000e+00, %31
  store double %32, ptr %18, align 8, !tbaa !106
  call void @llvm.lifetime.start.p0(i64 8, ptr %19) #6
  %33 = load i8, ptr %12, align 1, !tbaa !32
  %34 = uitofp i8 %33 to double
  %35 = load i32, ptr %9, align 4, !tbaa !49
  %36 = sitofp i32 %35 to double
  %37 = fdiv double %34, %36
  %38 = fsub double 1.000000e+00, %37
  store double %38, ptr %19, align 8, !tbaa !106
  call void @llvm.lifetime.start.p0(i64 8, ptr %20) #6
  %39 = load double, ptr %17, align 8, !tbaa !106
  %40 = load double, ptr %18, align 8, !tbaa !106
  %41 = fcmp olt double %39, %40
  br i1 %41, label %42, label %44

42:                                               ; preds = %8
  %43 = load double, ptr %17, align 8, !tbaa !106
  br label %46

44:                                               ; preds = %8
  %45 = load double, ptr %18, align 8, !tbaa !106
  br label %46

46:                                               ; preds = %44, %42
  %47 = phi double [ %43, %42 ], [ %45, %44 ]
  %48 = load double, ptr %19, align 8, !tbaa !106
  %49 = fcmp olt double %47, %48
  br i1 %49, label %50, label %60

50:                                               ; preds = %46
  %51 = load double, ptr %17, align 8, !tbaa !106
  %52 = load double, ptr %18, align 8, !tbaa !106
  %53 = fcmp olt double %51, %52
  br i1 %53, label %54, label %56

54:                                               ; preds = %50
  %55 = load double, ptr %17, align 8, !tbaa !106
  br label %58

56:                                               ; preds = %50
  %57 = load double, ptr %18, align 8, !tbaa !106
  br label %58

58:                                               ; preds = %56, %54
  %59 = phi double [ %55, %54 ], [ %57, %56 ]
  br label %62

60:                                               ; preds = %46
  %61 = load double, ptr %19, align 8, !tbaa !106
  br label %62

62:                                               ; preds = %60, %58
  %63 = phi double [ %59, %58 ], [ %61, %60 ]
  store double %63, ptr %20, align 8, !tbaa !106
  %64 = load double, ptr %20, align 8, !tbaa !106
  %65 = fcmp oeq double %64, 1.000000e+00
  br i1 %65, label %66, label %67

66:                                               ; preds = %62
  store double 0.000000e+00, ptr %19, align 8, !tbaa !106
  store double 0.000000e+00, ptr %18, align 8, !tbaa !106
  store double 0.000000e+00, ptr %17, align 8, !tbaa !106
  br label %86

67:                                               ; preds = %62
  %68 = load double, ptr %17, align 8, !tbaa !106
  %69 = load double, ptr %20, align 8, !tbaa !106
  %70 = fsub double %68, %69
  %71 = load double, ptr %20, align 8, !tbaa !106
  %72 = fsub double 1.000000e+00, %71
  %73 = fdiv double %70, %72
  store double %73, ptr %17, align 8, !tbaa !106
  %74 = load double, ptr %18, align 8, !tbaa !106
  %75 = load double, ptr %20, align 8, !tbaa !106
  %76 = fsub double %74, %75
  %77 = load double, ptr %20, align 8, !tbaa !106
  %78 = fsub double 1.000000e+00, %77
  %79 = fdiv double %76, %78
  store double %79, ptr %18, align 8, !tbaa !106
  %80 = load double, ptr %19, align 8, !tbaa !106
  %81 = load double, ptr %20, align 8, !tbaa !106
  %82 = fsub double %80, %81
  %83 = load double, ptr %20, align 8, !tbaa !106
  %84 = fsub double 1.000000e+00, %83
  %85 = fdiv double %82, %84
  store double %85, ptr %19, align 8, !tbaa !106
  br label %86

86:                                               ; preds = %67, %66
  %87 = load i32, ptr %9, align 4, !tbaa !49
  %88 = sitofp i32 %87 to double
  %89 = load double, ptr %17, align 8, !tbaa !106
  %90 = load i32, ptr %9, align 4, !tbaa !49
  %91 = sitofp i32 %90 to double
  %92 = fneg double %89
  %93 = call double @llvm.fmuladd.f64(double %92, double %91, double %88)
  %94 = fadd double %93, 5.000000e-01
  %95 = fptoui double %94 to i8
  %96 = load ptr, ptr %13, align 8, !tbaa !73
  store i8 %95, ptr %96, align 1, !tbaa !32
  %97 = load i32, ptr %9, align 4, !tbaa !49
  %98 = sitofp i32 %97 to double
  %99 = load double, ptr %18, align 8, !tbaa !106
  %100 = load i32, ptr %9, align 4, !tbaa !49
  %101 = sitofp i32 %100 to double
  %102 = fneg double %99
  %103 = call double @llvm.fmuladd.f64(double %102, double %101, double %98)
  %104 = fadd double %103, 5.000000e-01
  %105 = fptoui double %104 to i8
  %106 = load ptr, ptr %14, align 8, !tbaa !73
  store i8 %105, ptr %106, align 1, !tbaa !32
  %107 = load i32, ptr %9, align 4, !tbaa !49
  %108 = sitofp i32 %107 to double
  %109 = load double, ptr %19, align 8, !tbaa !106
  %110 = load i32, ptr %9, align 4, !tbaa !49
  %111 = sitofp i32 %110 to double
  %112 = fneg double %109
  %113 = call double @llvm.fmuladd.f64(double %112, double %111, double %108)
  %114 = fadd double %113, 5.000000e-01
  %115 = fptoui double %114 to i8
  %116 = load ptr, ptr %15, align 8, !tbaa !73
  store i8 %115, ptr %116, align 1, !tbaa !32
  %117 = load i32, ptr %9, align 4, !tbaa !49
  %118 = sitofp i32 %117 to double
  %119 = load double, ptr %20, align 8, !tbaa !106
  %120 = load i32, ptr %9, align 4, !tbaa !49
  %121 = sitofp i32 %120 to double
  %122 = fneg double %119
  %123 = call double @llvm.fmuladd.f64(double %122, double %121, double %118)
  %124 = fadd double %123, 5.000000e-01
  %125 = fptoui double %124 to i8
  %126 = load ptr, ptr %16, align 8, !tbaa !73
  store i8 %125, ptr %126, align 1, !tbaa !32
  call void @llvm.lifetime.end.p0(i64 8, ptr %20) #6
  call void @llvm.lifetime.end.p0(i64 8, ptr %19) #6
  call void @llvm.lifetime.end.p0(i64 8, ptr %18) #6
  call void @llvm.lifetime.end.p0(i64 8, ptr %17) #6
  ret void
}

; Function Attrs: nounwind uwtable
define internal i32 @get_text_gray_cmyk_row(ptr noundef %0, ptr noundef %1) #0 {
  %3 = alloca ptr, align 8
  %4 = alloca ptr, align 8
  %5 = alloca ptr, align 8
  %6 = alloca ptr, align 8
  %7 = alloca ptr, align 8
  %8 = alloca ptr, align 8
  %9 = alloca i32, align 4
  %10 = alloca i32, align 4
  %11 = alloca i8, align 1
  %12 = alloca i8, align 1
  store ptr %0, ptr %3, align 8, !tbaa !4
  store ptr %1, ptr %4, align 8, !tbaa !46
  call void @llvm.lifetime.start.p0(i64 8, ptr %5) #6
  %13 = load ptr, ptr %4, align 8, !tbaa !46
  store ptr %13, ptr %5, align 8, !tbaa !37
  call void @llvm.lifetime.start.p0(i64 8, ptr %6) #6
  %14 = load ptr, ptr %5, align 8, !tbaa !37
  %15 = getelementptr inbounds nuw %struct.ppm_source_struct, ptr %14, i32 0, i32 0
  %16 = getelementptr inbounds nuw %struct.cjpeg_source_struct, ptr %15, i32 0, i32 3
  %17 = load ptr, ptr %16, align 8, !tbaa !48
  store ptr %17, ptr %6, align 8, !tbaa !70
  call void @llvm.lifetime.start.p0(i64 8, ptr %7) #6
  call void @llvm.lifetime.start.p0(i64 8, ptr %8) #6
  %18 = load ptr, ptr %5, align 8, !tbaa !37
  %19 = getelementptr inbounds nuw %struct.ppm_source_struct, ptr %18, i32 0, i32 4
  %20 = load ptr, ptr %19, align 8, !tbaa !66
  store ptr %20, ptr %8, align 8, !tbaa !73
  call void @llvm.lifetime.start.p0(i64 4, ptr %9) #6
  call void @llvm.lifetime.start.p0(i64 4, ptr %10) #6
  %21 = load ptr, ptr %5, align 8, !tbaa !37
  %22 = getelementptr inbounds nuw %struct.ppm_source_struct, ptr %21, i32 0, i32 5
  %23 = load i32, ptr %22, align 8, !tbaa !53
  store i32 %23, ptr %10, align 4, !tbaa !49
  %24 = load ptr, ptr %5, align 8, !tbaa !37
  %25 = getelementptr inbounds nuw %struct.ppm_source_struct, ptr %24, i32 0, i32 0
  %26 = getelementptr inbounds nuw %struct.cjpeg_source_struct, ptr %25, i32 0, i32 4
  %27 = load ptr, ptr %26, align 8, !tbaa !63
  %28 = getelementptr inbounds ptr, ptr %27, i64 0
  %29 = load ptr, ptr %28, align 8, !tbaa !73
  store ptr %29, ptr %7, align 8, !tbaa !73
  %30 = load i32, ptr %10, align 4, !tbaa !49
  %31 = load ptr, ptr %3, align 8, !tbaa !4
  %32 = getelementptr inbounds nuw %struct.jpeg_compress_struct, ptr %31, i32 0, i32 12
  %33 = load i32, ptr %32, align 8, !tbaa !9
  %34 = shl i32 1, %33
  %35 = sub i32 %34, 1
  %36 = icmp eq i32 %30, %35
  br i1 %36, label %37, label %67

37:                                               ; preds = %2
  %38 = load ptr, ptr %3, align 8, !tbaa !4
  %39 = getelementptr inbounds nuw %struct.jpeg_compress_struct, ptr %38, i32 0, i32 7
  %40 = load i32, ptr %39, align 8, !tbaa !51
  store i32 %40, ptr %9, align 4, !tbaa !49
  br label %41

41:                                               ; preds = %63, %37
  %42 = load i32, ptr %9, align 4, !tbaa !49
  %43 = icmp ugt i32 %42, 0
  br i1 %43, label %44, label %66

44:                                               ; preds = %41
  call void @llvm.lifetime.start.p0(i64 1, ptr %11) #6
  %45 = load ptr, ptr %3, align 8, !tbaa !4
  %46 = load ptr, ptr %6, align 8, !tbaa !70
  %47 = load i32, ptr %10, align 4, !tbaa !49
  %48 = call i32 @read_pbm_integer(ptr noundef %45, ptr noundef %46, i32 noundef %47)
  %49 = trunc i32 %48 to i8
  store i8 %49, ptr %11, align 1, !tbaa !32
  %50 = load i32, ptr %10, align 4, !tbaa !49
  %51 = load i8, ptr %11, align 1, !tbaa !32
  %52 = load i8, ptr %11, align 1, !tbaa !32
  %53 = load i8, ptr %11, align 1, !tbaa !32
  %54 = load ptr, ptr %7, align 8, !tbaa !73
  %55 = load ptr, ptr %7, align 8, !tbaa !73
  %56 = getelementptr inbounds i8, ptr %55, i64 1
  %57 = load ptr, ptr %7, align 8, !tbaa !73
  %58 = getelementptr inbounds i8, ptr %57, i64 2
  %59 = load ptr, ptr %7, align 8, !tbaa !73
  %60 = getelementptr inbounds i8, ptr %59, i64 3
  call void @rgb_to_cmyk(i32 noundef %50, i8 noundef zeroext %51, i8 noundef zeroext %52, i8 noundef zeroext %53, ptr noundef %54, ptr noundef %56, ptr noundef %58, ptr noundef %60)
  %61 = load ptr, ptr %7, align 8, !tbaa !73
  %62 = getelementptr inbounds i8, ptr %61, i64 4
  store ptr %62, ptr %7, align 8, !tbaa !73
  call void @llvm.lifetime.end.p0(i64 1, ptr %11) #6
  br label %63

63:                                               ; preds = %44
  %64 = load i32, ptr %9, align 4, !tbaa !49
  %65 = add i32 %64, -1
  store i32 %65, ptr %9, align 4, !tbaa !49
  br label %41, !llvm.loop !79

66:                                               ; preds = %41
  br label %100

67:                                               ; preds = %2
  %68 = load ptr, ptr %3, align 8, !tbaa !4
  %69 = getelementptr inbounds nuw %struct.jpeg_compress_struct, ptr %68, i32 0, i32 7
  %70 = load i32, ptr %69, align 8, !tbaa !51
  store i32 %70, ptr %9, align 4, !tbaa !49
  br label %71

71:                                               ; preds = %96, %67
  %72 = load i32, ptr %9, align 4, !tbaa !49
  %73 = icmp ugt i32 %72, 0
  br i1 %73, label %74, label %99

74:                                               ; preds = %71
  call void @llvm.lifetime.start.p0(i64 1, ptr %12) #6
  %75 = load ptr, ptr %8, align 8, !tbaa !73
  %76 = load ptr, ptr %3, align 8, !tbaa !4
  %77 = load ptr, ptr %6, align 8, !tbaa !70
  %78 = load i32, ptr %10, align 4, !tbaa !49
  %79 = call i32 @read_pbm_integer(ptr noundef %76, ptr noundef %77, i32 noundef %78)
  %80 = zext i32 %79 to i64
  %81 = getelementptr inbounds nuw i8, ptr %75, i64 %80
  %82 = load i8, ptr %81, align 1, !tbaa !32
  store i8 %82, ptr %12, align 1, !tbaa !32
  %83 = load i32, ptr %10, align 4, !tbaa !49
  %84 = load i8, ptr %12, align 1, !tbaa !32
  %85 = load i8, ptr %12, align 1, !tbaa !32
  %86 = load i8, ptr %12, align 1, !tbaa !32
  %87 = load ptr, ptr %7, align 8, !tbaa !73
  %88 = load ptr, ptr %7, align 8, !tbaa !73
  %89 = getelementptr inbounds i8, ptr %88, i64 1
  %90 = load ptr, ptr %7, align 8, !tbaa !73
  %91 = getelementptr inbounds i8, ptr %90, i64 2
  %92 = load ptr, ptr %7, align 8, !tbaa !73
  %93 = getelementptr inbounds i8, ptr %92, i64 3
  call void @rgb_to_cmyk(i32 noundef %83, i8 noundef zeroext %84, i8 noundef zeroext %85, i8 noundef zeroext %86, ptr noundef %87, ptr noundef %89, ptr noundef %91, ptr noundef %93)
  %94 = load ptr, ptr %7, align 8, !tbaa !73
  %95 = getelementptr inbounds i8, ptr %94, i64 4
  store ptr %95, ptr %7, align 8, !tbaa !73
  call void @llvm.lifetime.end.p0(i64 1, ptr %12) #6
  br label %96

96:                                               ; preds = %74
  %97 = load i32, ptr %9, align 4, !tbaa !49
  %98 = add i32 %97, -1
  store i32 %98, ptr %9, align 4, !tbaa !49
  br label %71, !llvm.loop !80

99:                                               ; preds = %71
  br label %100

100:                                              ; preds = %99, %66
  call void @llvm.lifetime.end.p0(i64 4, ptr %10) #6
  call void @llvm.lifetime.end.p0(i64 4, ptr %9) #6
  call void @llvm.lifetime.end.p0(i64 8, ptr %8) #6
  call void @llvm.lifetime.end.p0(i64 8, ptr %7) #6
  call void @llvm.lifetime.end.p0(i64 8, ptr %6) #6
  call void @llvm.lifetime.end.p0(i64 8, ptr %5) #6
  ret i32 1
}