; Function Attrs: nounwind uwtable
define internal noundef i32 @get_text_gray_cmyk_row(ptr noundef %0, ptr noundef readonly captures(none) %1) #0 {
  %3 = getelementptr inbounds nuw i8, ptr %1, i64 24
  %4 = load ptr, ptr %3, align 8, !tbaa !43
  %5 = getelementptr inbounds nuw i8, ptr %1, i64 88
  %6 = load ptr, ptr %5, align 8, !tbaa !59
  %7 = getelementptr inbounds nuw i8, ptr %1, i64 96
  %8 = load i32, ptr %7, align 8, !tbaa !47
  %9 = getelementptr inbounds nuw i8, ptr %1, i64 32
  %10 = load ptr, ptr %9, align 8, !tbaa !57
  %11 = load ptr, ptr %10, align 8, !tbaa !63
  %12 = getelementptr inbounds nuw i8, ptr %0, i64 72
  %13 = load i32, ptr %12, align 8, !tbaa !4
  %notmask = shl nsw i32 -1, %13
  %14 = xor i32 %notmask, %8
  %15 = icmp eq i32 %14, -1
  %16 = getelementptr inbounds nuw i8, ptr %0, i64 48
  %17 = load i32, ptr %16, align 8, !tbaa !45
  %.not4151 = icmp eq i32 %17, 0
  br i1 %15, label %18, label %42

18:                                               ; preds = %2
  br i1 %.not4151, label %.loopexit, label %rgb_to_cmyk.exit.lr.ph

rgb_to_cmyk.exit.lr.ph:                           ; preds = %18
  %19 = sitofp i32 %8 to double
  br label %rgb_to_cmyk.exit

rgb_to_cmyk.exit:                                 ; preds = %rgb_to_cmyk.exit.lr.ph, %rgb_to_cmyk.exit
  %.053 = phi ptr [ %11, %rgb_to_cmyk.exit.lr.ph ], [ %40, %rgb_to_cmyk.exit ]
  %.03752 = phi i32 [ %17, %rgb_to_cmyk.exit.lr.ph ], [ %41, %rgb_to_cmyk.exit ]
  %20 = tail call fastcc i32 @read_pbm_integer(ptr noundef %0, ptr noundef %4, i32 noundef %8)
  %21 = trunc i32 %20 to i8
  %22 = getelementptr inbounds nuw i8, ptr %.053, i64 1
  %23 = getelementptr inbounds nuw i8, ptr %.053, i64 2
  %24 = getelementptr inbounds nuw i8, ptr %.053, i64 3
  %25 = uitofp i8 %21 to double
  %26 = fdiv double %25, %19
  %27 = fsub double 1.000000e+00, %26
  %28 = fcmp oeq double %27, 1.000000e+00
  %29 = fsub double %27, %27
  %30 = fsub double 1.000000e+00, %27
  %31 = fneg double %29
  %.neg55 = fdiv double %31, %30
  %32 = select i1 %28, double -0.000000e+00, double %.neg55
  %33 = tail call double @llvm.fmuladd.f64(double %32, double %19, double %19)
  %34 = fadd double %33, 5.000000e-01
  %35 = fptoui double %34 to i8
  store i8 %35, ptr %.053, align 1, !tbaa !30
  store i8 %35, ptr %22, align 1, !tbaa !30
  store i8 %35, ptr %23, align 1, !tbaa !30
  %36 = fneg double %27
  %37 = tail call double @llvm.fmuladd.f64(double %36, double %19, double %19)
  %38 = fadd double %37, 5.000000e-01
  %39 = fptoui double %38 to i8
  store i8 %39, ptr %24, align 1, !tbaa !30
  %40 = getelementptr inbounds nuw i8, ptr %.053, i64 4
  %41 = add i32 %.03752, -1
  %.not41 = icmp eq i32 %41, 0
  br i1 %.not41, label %.loopexit, label %rgb_to_cmyk.exit, !llvm.loop !69

42:                                               ; preds = %2
  br i1 %.not4151, label %.loopexit, label %rgb_to_cmyk.exit46.lr.ph

rgb_to_cmyk.exit46.lr.ph:                         ; preds = %42
  %43 = sitofp i32 %8 to double
  br label %rgb_to_cmyk.exit46

rgb_to_cmyk.exit46:                               ; preds = %rgb_to_cmyk.exit46.lr.ph, %rgb_to_cmyk.exit46
  %.150 = phi ptr [ %11, %rgb_to_cmyk.exit46.lr.ph ], [ %66, %rgb_to_cmyk.exit46 ]
  %.13849 = phi i32 [ %17, %rgb_to_cmyk.exit46.lr.ph ], [ %67, %rgb_to_cmyk.exit46 ]
  %44 = tail call fastcc i32 @read_pbm_integer(ptr noundef %0, ptr noundef %4, i32 noundef %8)
  %45 = zext i32 %44 to i64
  %46 = getelementptr inbounds nuw i8, ptr %6, i64 %45
  %47 = load i8, ptr %46, align 1, !tbaa !30
  %48 = getelementptr inbounds nuw i8, ptr %.150, i64 1
  %49 = getelementptr inbounds nuw i8, ptr %.150, i64 2
  %50 = getelementptr inbounds nuw i8, ptr %.150, i64 3
  %51 = uitofp i8 %47 to double
  %52 = fdiv double %51, %43
  %53 = fsub double 1.000000e+00, %52
  %54 = fcmp oeq double %53, 1.000000e+00
  %55 = fsub double %53, %53
  %56 = fsub double 1.000000e+00, %53
  %57 = fneg double %55
  %.neg = fdiv double %57, %56
  %58 = select i1 %54, double -0.000000e+00, double %.neg
  %59 = tail call double @llvm.fmuladd.f64(double %58, double %43, double %43)
  %60 = fadd double %59, 5.000000e-01
  %61 = fptoui double %60 to i8
  store i8 %61, ptr %.150, align 1, !tbaa !30
  store i8 %61, ptr %48, align 1, !tbaa !30
  store i8 %61, ptr %49, align 1, !tbaa !30
  %62 = fneg double %53
  %63 = tail call double @llvm.fmuladd.f64(double %62, double %43, double %43)
  %64 = fadd double %63, 5.000000e-01
  %65 = fptoui double %64 to i8
  store i8 %65, ptr %50, align 1, !tbaa !30
  %66 = getelementptr inbounds nuw i8, ptr %.150, i64 4
  %67 = add i32 %.13849, -1
  %.not = icmp eq i32 %67, 0
  br i1 %.not, label %.loopexit, label %rgb_to_cmyk.exit46, !llvm.loop !70

.loopexit:                                        ; preds = %rgb_to_cmyk.exit46, %rgb_to_cmyk.exit, %42, %18
  ret i32 1
}